target datalayout = "e-m:e-p270:32:32-p271:32:32-p272:64:64-i64:64-i128:128-f80:128-n8:16:32:64-S128"
target triple = "x86_64-pc-linux-gnu"

%struct.strbuf = type { i64, i64, ptr }
%struct.repository = type { ptr, ptr, ptr, ptr, ptr, %struct.strmap, %struct.strmap, %struct.repo_path_cache, ptr, ptr, ptr, ptr, %struct.repo_settings, ptr, ptr, ptr, ptr, ptr, ptr, i32, i32, i32, ptr, ptr, i32, i32, i8 }
%struct.strmap = type { %struct.hashmap, ptr, i8 }
%struct.hashmap = type { ptr, ptr, ptr, i32, i32, i32, i32, i8 }
%struct.repo_path_cache = type { ptr, ptr, ptr, ptr, ptr, ptr, ptr }
%struct.repo_settings = type { i32, i32, i32, i32, i32, i32, i32, i32, i32, i32, i32, i32, ptr, i32, i32, i32, i32, i32, i32, i32, i64, i64, i64 }
%struct.object_id = type { [32 x i8], i32 }
%struct.checkout_metadata = type { ptr, %struct.object_id, %struct.object_id }
%struct.conv_attrs = type { ptr, i32, i32, i32, ptr }

@the_repository = external global ptr, align 8
@.str.66 = private unnamed_addr constant [1 x i8] zeroinitializer, align 1
@git_gettext_enabled = external global i32, align 4
@.str.95 = private unnamed_addr constant [27 x i8] c"cannot read object %s '%s'\00", align 1
@__const.filter_object.strbuf = private unnamed_addr constant %struct.strbuf { i64 0, i64 0, ptr @strbuf_slopbuf }, align 8

; Function Attrs: inlinehint nounwind uwtable
define internal i32 @convert_to_working_tree(ptr noundef %0, ptr noundef %1, ptr noundef %2, i64 noundef %3, ptr noundef %4, ptr noundef %5) #4 {
  %7 = alloca ptr, align 8
  %8 = alloca ptr, align 8
  %9 = alloca ptr, align 8
  %10 = alloca i64, align 8
  %11 = alloca ptr, align 8
  %12 = alloca ptr, align 8
  %13 = alloca %struct.conv_attrs, align 8
  store ptr %0, ptr %7, align 8, !tbaa !135
  store ptr %1, ptr %8, align 8, !tbaa !11
  store ptr %2, ptr %9, align 8, !tbaa !11
  store i64 %3, ptr %10, align 8, !tbaa !99
  store ptr %4, ptr %11, align 8, !tbaa !101
  store ptr %5, ptr %12, align 8, !tbaa !136
  call void @llvm.lifetime.start.p0(i64 32, ptr %13) #9
  %14 = load ptr, ptr %7, align 8, !tbaa !135
  %15 = load ptr, ptr %8, align 8, !tbaa !11
  call void @convert_attrs(ptr noundef %14, ptr noundef %13, ptr noundef %15)
  %16 = load ptr, ptr %8, align 8, !tbaa !11
  %17 = load ptr, ptr %9, align 8, !tbaa !11
  %18 = load i64, ptr %10, align 8, !tbaa !99
  %19 = load ptr, ptr %11, align 8, !tbaa !101
  %20 = load ptr, ptr %12, align 8, !tbaa !136
  %21 = call i32 @convert_to_working_tree_ca(ptr noundef %13, ptr noundef %16, ptr noundef %17, i64 noundef %18, ptr noundef %19, ptr noundef %20)
  call void @llvm.lifetime.end.p0(i64 32, ptr %13) #9
  ret i32 %21
}

; Function Attrs: inlinehint nounwind uwtable
define internal i32 @const_error() #4 {
  ret i32 -1
}

; Function Attrs: inlinehint nounwind uwtable
define internal ptr @_(ptr noundef %0) #4 {
  %2 = alloca ptr, align 8
  %3 = alloca ptr, align 8
  store ptr %0, ptr %3, align 8, !tbaa !11
  %4 = load ptr, ptr %3, align 8, !tbaa !11
  %5 = load i8, ptr %4, align 1, !tbaa !64
  %6 = icmp ne i8 %5, 0
  br i1 %6, label %8, label %7

7:                                                ; preds = %1
  store ptr @.str.66, ptr %2, align 8
  br label %16

8:                                                ; preds = %1
  %9 = load i32, ptr @git_gettext_enabled, align 4, !tbaa !4
  %10 = icmp ne i32 %9, 0
  br i1 %10, label %13, label %11

11:                                               ; preds = %8
  %12 = load ptr, ptr %3, align 8, !tbaa !11
  store ptr %12, ptr %2, align 8
  br label %16

13:                                               ; preds = %8
  %14 = load ptr, ptr %3, align 8, !tbaa !11
  %15 = call ptr @dcgettext(ptr noundef null, ptr noundef %14, i32 noundef 5) #9
  store ptr %15, ptr %2, align 8
  br label %16

16:                                               ; preds = %13, %11, %7
  %17 = load ptr, ptr %2, align 8
  ret ptr %17
}

; Function Attrs: nounwind uwtable
define internal i32 @filter_object(ptr noundef %0, i32 noundef %1, ptr noundef %2, ptr noundef %3, ptr noundef %4) #0 {
  %6 = alloca i32, align 4
  %7 = alloca ptr, align 8
  %8 = alloca i32, align 4
  %9 = alloca ptr, align 8
  %10 = alloca ptr, align 8
  %11 = alloca ptr, align 8
  %12 = alloca i32, align 4
  %13 = alloca i32, align 4
  %14 = alloca %struct.strbuf, align 8
  %15 = alloca %struct.checkout_metadata, align 8
  store ptr %0, ptr %7, align 8, !tbaa !11
  store i32 %1, ptr %8, align 4, !tbaa !4
  store ptr %2, ptr %9, align 8, !tbaa !104
  store ptr %3, ptr %10, align 8, !tbaa !8
  store ptr %4, ptr %11, align 8, !tbaa !133
  call void @llvm.lifetime.start.p0(i64 4, ptr %12) #9
  %16 = load ptr, ptr @the_repository, align 8, !tbaa !13
  %17 = load ptr, ptr %9, align 8, !tbaa !104
  %18 = load ptr, ptr %11, align 8, !tbaa !133
  %19 = call ptr @repo_read_object_file(ptr noundef %16, ptr noundef %17, ptr noundef %12, ptr noundef %18)
  %20 = load ptr, ptr %10, align 8, !tbaa !8
  store ptr %19, ptr %20, align 8, !tbaa !11
  %21 = load ptr, ptr %10, align 8, !tbaa !8
  %22 = load ptr, ptr %21, align 8, !tbaa !11
  %23 = icmp ne ptr %22, null
  br i1 %23, label %31, label %24

24:                                               ; preds = %5
  %25 = call ptr @_(ptr noundef @.str.95)
  %26 = load ptr, ptr %9, align 8, !tbaa !104
  %27 = call ptr @oid_to_hex(ptr noundef %26)
  %28 = load ptr, ptr %7, align 8, !tbaa !11
  %29 = call i32 (ptr, ...) @error(ptr noundef %25, ptr noundef %27, ptr noundef %28)
  %30 = call i32 @const_error()
  store i32 %30, ptr %6, align 4
  store i32 1, ptr %13, align 4
  br label %60

31:                                               ; preds = %5
  %32 = load i32, ptr %12, align 4, !tbaa !4
  %33 = icmp eq i32 %32, 3
  br i1 %33, label %34, label %59

34:                                               ; preds = %31
  %35 = load i32, ptr %8, align 4, !tbaa !4
  %36 = and i32 %35, 61440
  %37 = icmp eq i32 %36, 32768
  br i1 %37, label %38, label %59

38:                                               ; preds = %34
  call void @llvm.lifetime.start.p0(i64 24, ptr %14) #9
  call void @llvm.memcpy.p0.p0.i64(ptr align 8 %14, ptr align 8 @__const.filter_object.strbuf, i64 24, i1 false)
  call void @llvm.lifetime.start.p0(i64 80, ptr %15) #9
  %39 = load ptr, ptr %9, align 8, !tbaa !104
  call void @init_checkout_metadata(ptr noundef %15, ptr noundef null, ptr noundef null, ptr noundef %39)
  %40 = load ptr, ptr @the_repository, align 8, !tbaa !13
  %41 = getelementptr inbounds nuw %struct.repository, ptr %40, i32 0, i32 15
  %42 = load ptr, ptr %41, align 8, !tbaa !134
  %43 = load ptr, ptr %7, align 8, !tbaa !11
  %44 = load ptr, ptr %10, align 8, !tbaa !8
  %45 = load ptr, ptr %44, align 8, !tbaa !11
  %46 = load ptr, ptr %11, align 8, !tbaa !133
  %47 = load i64, ptr %46, align 8, !tbaa !99
  %48 = call i32 @convert_to_working_tree(ptr noundef %42, ptr noundef %43, ptr noundef %45, i64 noundef %47, ptr noundef %14, ptr noundef %15)
  %49 = icmp ne i32 %48, 0
  br i1 %49, label %50, label %58

50:                                               ; preds = %38
  %51 = load ptr, ptr %10, align 8, !tbaa !8
  %52 = load ptr, ptr %51, align 8, !tbaa !11
  call void @free(ptr noundef %52) #9
  %53 = getelementptr inbounds nuw %struct.strbuf, ptr %14, i32 0, i32 1
  %54 = load i64, ptr %53, align 8, !tbaa !95
  %55 = load ptr, ptr %11, align 8, !tbaa !133
  store i64 %54, ptr %55, align 8, !tbaa !99
  %56 = call ptr @strbuf_detach(ptr noundef %14, ptr noundef null)
  %57 = load ptr, ptr %10, align 8, !tbaa !8
  store ptr %56, ptr %57, align 8, !tbaa !11
  br label %58

58:                                               ; preds = %50, %38
  call void @llvm.lifetime.end.p0(i64 80, ptr %15) #9
  call void @llvm.lifetime.end.p0(i64 24, ptr %14) #9
  br label %59

59:                                               ; preds = %58, %34, %31
  store i32 0, ptr %6, align 4
  store i32 1, ptr %13, align 4
  br label %60

60:                                               ; preds = %59, %24
  call void @llvm.lifetime.end.p0(i64 4, ptr %12) #9
  %61 = load i32, ptr %6, align 4
  ret i32 %61
}