; Function Attrs: nounwind uwtable
define internal fastcc range(i32 -1, 1) i32 @filter_object(ptr noundef %0, i32 noundef range(i32 0, 65536) %1, ptr noundef %2, ptr noundef nonnull captures(none) initializes((0, 8)) %3, ptr noundef nonnull %4) unnamed_addr #0 {
  %6 = alloca %struct.conv_attrs, align 8
  %7 = alloca i32, align 4
  %8 = alloca %struct.strbuf, align 8
  %9 = alloca %struct.checkout_metadata, align 8
  call void @llvm.lifetime.start.p0(i64 4, ptr nonnull %7) #14
  %10 = load ptr, ptr @the_repository, align 8, !tbaa !21
  %11 = call ptr @repo_read_object_file(ptr noundef %10, ptr noundef %2, ptr noundef nonnull %7, ptr noundef nonnull %4) #14
  store ptr %11, ptr %3, align 8, !tbaa !26
  %.not = icmp eq ptr %11, null
  br i1 %.not, label %12, label %18

12:                                               ; preds = %5
  %13 = load i32, ptr @git_gettext_enabled, align 4, !tbaa !4
  %.not4.i = icmp eq i32 %13, 0
  br i1 %.not4.i, label %_.exit, label %14

14:                                               ; preds = %12
  %15 = call ptr @dcgettext(ptr noundef null, ptr noundef nonnull @.str.95, i32 noundef 5) #14
  br label %_.exit

_.exit:                                           ; preds = %12, %14
  %.0.i = phi ptr [ %15, %14 ], [ @.str.95, %12 ]
  %16 = call ptr @oid_to_hex(ptr noundef %2) #14
  %17 = call i32 (ptr, ...) @error(ptr noundef %.0.i, ptr noundef %16, ptr noundef %0) #14
  br label %36

18:                                               ; preds = %5
  %19 = load i32, ptr %7, align 4, !tbaa !4
  %20 = icmp eq i32 %19, 3
  %21 = and i32 %1, 61440
  %22 = icmp eq i32 %21, 32768
  %or.cond = and i1 %22, %20
  br i1 %or.cond, label %23, label %36

23:                                               ; preds = %18
  call void @llvm.lifetime.start.p0(i64 24, ptr nonnull %8) #14
  call void @llvm.memcpy.p0.p0.i64(ptr noundef nonnull align 8 dereferenceable(24) %8, ptr noundef nonnull align 8 dereferenceable(24) @__const.cat_one_file.sb, i64 24, i1 false)
  call void @llvm.lifetime.start.p0(i64 80, ptr nonnull %9) #14
  call void @init_checkout_metadata(ptr noundef nonnull %9, ptr noundef null, ptr noundef null, ptr noundef %2) #14
  %24 = load ptr, ptr @the_repository, align 8, !tbaa !21
  %25 = getelementptr inbounds nuw i8, ptr %24, i64 384
  %26 = load ptr, ptr %25, align 8, !tbaa !112
  %27 = load ptr, ptr %3, align 8, !tbaa !26
  %28 = load i64, ptr %4, align 8, !tbaa !100
  call void @llvm.lifetime.start.p0(i64 32, ptr nonnull %6) #14
  call void @convert_attrs(ptr noundef %26, ptr noundef nonnull %6, ptr noundef %0) #14
  %29 = call i32 @convert_to_working_tree_ca(ptr noundef nonnull %6, ptr noundef %0, ptr noundef %27, i64 noundef %28, ptr noundef nonnull %8, ptr noundef nonnull %9) #14
  call void @llvm.lifetime.end.p0(i64 32, ptr nonnull %6) #14
  %.not14 = icmp eq i32 %29, 0
  br i1 %.not14, label %35, label %30

30:                                               ; preds = %23
  %31 = load ptr, ptr %3, align 8, !tbaa !26
  call void @free(ptr noundef %31) #14
  %32 = getelementptr inbounds nuw i8, ptr %8, i64 8
  %33 = load i64, ptr %32, align 8, !tbaa !72
  store i64 %33, ptr %4, align 8, !tbaa !100
  %34 = call ptr @strbuf_detach(ptr noundef nonnull %8, ptr noundef null) #14
  store ptr %34, ptr %3, align 8, !tbaa !26
  br label %35

35:                                               ; preds = %30, %23
  call void @llvm.lifetime.end.p0(i64 80, ptr nonnull %9) #14
  call void @llvm.lifetime.end.p0(i64 24, ptr nonnull %8) #14
  br label %36

36:                                               ; preds = %18, %35, %_.exit
  %.0 = phi i32 [ -1, %_.exit ], [ 0, %35 ], [ 0, %18 ]
  call void @llvm.lifetime.end.p0(i64 4, ptr nonnull %7) #14
  ret i32 %.0
}